target datalayout = "e-m:e-p270:32:32-p271:32:32-p272:64:64-i64:64-i128:128-f80:128-n8:16:32:64-S128"
target triple = "x86_64-pc-linux-gnu"

%"class.std::basic_ostream" = type { ptr, %"class.std::basic_ios" }
%"class.std::basic_ios" = type { %"class.std::ios_base", ptr, i8, i8, ptr, ptr, ptr, ptr }
%"class.std::ios_base" = type { ptr, i64, i64, i32, i32, i32, ptr, %"struct.std::ios_base::_Words", [8 x %"struct.std::ios_base::_Words"], i32, ptr, %"class.std::locale" }
%"struct.std::ios_base::_Words" = type { ptr, i64 }
%"class.std::locale" = type { ptr }

@_ZTISt9bad_alloc = external constant ptr
@_ZTISt9exception = external constant ptr
@_ZSt4cerr = external global %"class.std::basic_ostream", align 8
@.str.9 = private unnamed_addr constant [72 x i8] c"Something went wrong during jsonnet_evaluate_file, please report this: \00", align 1

; Function Attrs: mustprogress uwtable
define ptr @jsonnet_evaluate_file(ptr noundef %0, ptr noundef %1, ptr noundef %2) #4 personality ptr @__gxx_personality_v0 {
  %4 = alloca ptr, align 8
  %5 = alloca ptr, align 8
  %6 = alloca ptr, align 8
  %7 = alloca ptr, align 8
  %8 = alloca ptr, align 8
  %9 = alloca i32, align 4
  %10 = alloca ptr, align 8
  %11 = alloca ptr, align 8
  store ptr %0, ptr %5, align 8
  store ptr %1, ptr %6, align 8
  store ptr %2, ptr %7, align 8
  %12 = load ptr, ptr %5, align 8
  %13 = load ptr, ptr %6, align 8
  %14 = load ptr, ptr %7, align 8
  %15 = invoke noundef ptr @_ZL25jsonnet_evaluate_file_auxP9JsonnetVmPKcPiN12_GLOBAL__N_18EvalKindE(ptr noundef %12, ptr noundef %13, ptr noundef %14, i32 noundef 0)
          to label %16 unwind label %17

16:                                               ; preds = %3
  store ptr %15, ptr %4, align 8
  br label %57

17:                                               ; preds = %3
  %18 = landingpad { ptr, i32 }
          catch ptr @_ZTISt9bad_alloc
          catch ptr @_ZTISt9exception
  %19 = extractvalue { ptr, i32 } %18, 0
  store ptr %19, ptr %8, align 8
  %20 = extractvalue { ptr, i32 } %18, 1
  store i32 %20, ptr %9, align 4
  br label %21

21:                                               ; preds = %17
  %22 = load i32, ptr %9, align 4
  %23 = call i32 @llvm.eh.typeid.for(ptr @_ZTISt9bad_alloc) #3
  %24 = icmp eq i32 %22, %23
  br i1 %24, label %25, label %30

25:                                               ; preds = %21
  %26 = load ptr, ptr %8, align 8
  %27 = call ptr @__cxa_begin_catch(ptr %26) #3
  store ptr %27, ptr %11, align 8
  invoke void @_ZL12memory_panicv()
          to label %28 unwind label %52

28:                                               ; preds = %25
  call void @__cxa_end_catch()
  br label %29

29:                                               ; preds = %28
  store ptr null, ptr %4, align 8
  br label %57

30:                                               ; preds = %21
  %31 = call i32 @llvm.eh.typeid.for(ptr @_ZTISt9exception) #3
  %32 = icmp eq i32 %22, %31
  br i1 %32, label %33, label %59

33:                                               ; preds = %30
  %34 = load ptr, ptr %8, align 8
  %35 = call ptr @__cxa_begin_catch(ptr %34) #3
  store ptr %35, ptr %10, align 8
  %36 = invoke noundef nonnull align 8 dereferenceable(8) ptr @_ZStlsISt11char_traitsIcEERSt13basic_ostreamIcT_ES5_PKc(ptr noundef nonnull align 8 dereferenceable(8) @_ZSt4cerr, ptr noundef @.str.9)
          to label %37 unwind label %47

37:                                               ; preds = %33
  %38 = load ptr, ptr %10, align 8
  %39 = load ptr, ptr %38, align 8
  %40 = getelementptr inbounds ptr, ptr %39, i64 2
  %41 = load ptr, ptr %40, align 8
  %42 = call noundef ptr %41(ptr noundef nonnull align 8 dereferenceable(8) %38) #3
  %43 = invoke noundef nonnull align 8 dereferenceable(8) ptr @_ZStlsISt11char_traitsIcEERSt13basic_ostreamIcT_ES5_PKc(ptr noundef nonnull align 8 dereferenceable(8) %36, ptr noundef %42)
          to label %44 unwind label %47

44:                                               ; preds = %37
  %45 = invoke noundef nonnull align 8 dereferenceable(8) ptr @_ZNSolsEPFRSoS_E(ptr noundef nonnull align 8 dereferenceable(8) %43, ptr noundef @_ZSt4endlIcSt11char_traitsIcEERSt13basic_ostreamIT_T0_ES6_)
          to label %46 unwind label %47

46:                                               ; preds = %44
  call void @abort() #20
  unreachable

47:                                               ; preds = %44, %37, %33
  %48 = landingpad { ptr, i32 }
          cleanup
  %49 = extractvalue { ptr, i32 } %48, 0
  store ptr %49, ptr %8, align 8
  %50 = extractvalue { ptr, i32 } %48, 1
  store i32 %50, ptr %9, align 4
  invoke void @__cxa_end_catch()
          to label %51 unwind label %64

51:                                               ; preds = %47
  br label %59

52:                                               ; preds = %25
  %53 = landingpad { ptr, i32 }
          cleanup
  %54 = extractvalue { ptr, i32 } %53, 0
  store ptr %54, ptr %8, align 8
  %55 = extractvalue { ptr, i32 } %53, 1
  store i32 %55, ptr %9, align 4
  invoke void @__cxa_end_catch()
          to label %56 unwind label %64

56:                                               ; preds = %52
  br label %59

57:                                               ; preds = %29, %16
  %58 = load ptr, ptr %4, align 8
  ret ptr %58

59:                                               ; preds = %56, %51, %30
  %60 = load ptr, ptr %8, align 8
  %61 = load i32, ptr %9, align 4
  %62 = insertvalue { ptr, i32 } poison, ptr %60, 0
  %63 = insertvalue { ptr, i32 } %62, i32 %61, 1
  resume { ptr, i32 } %63

64:                                               ; preds = %52, %47
  %65 = landingpad { ptr, i32 }
          catch ptr null
  %66 = extractvalue { ptr, i32 } %65, 0
  call void @__clang_call_terminate(ptr %66) #20
  unreachable
}